; Function Attrs: mustprogress uwtable
define hidden void @_ZN7datalog12rule_manager7dec_refEPNS_4ruleE(ptr nocapture noundef nonnull readonly align 8 dereferenceable(1368) %this, ptr noundef %r) local_unnamed_addr #3 align 2 {
entry:
  %tobool.not = icmp eq ptr %r, null
  br i1 %tobool.not, label %if.end4, label %if.then

if.then:                                          ; preds = %entry
  %m_ref_cnt = getelementptr inbounds i8, ptr %r, i64 60
  %0 = load i32, ptr %m_ref_cnt, align 4
  %dec = add i32 %0, -1
  store i32 %dec, ptr %m_ref_cnt, align 4
  %cmp = icmp eq i32 %dec, 0
  br i1 %cmp, label %if.then3, label %if.end4

if.then3:                                         ; preds = %if.then
  %1 = load ptr, ptr %this, align 8
  tail call void @_ZN7datalog4rule10deallocateER11ast_manager(ptr noundef nonnull align 8 dereferenceable(80) %r, ptr noundef nonnull align 8 dereferenceable(976) %1)
  br label %if.end4

if.end4:                                          ; preds = %if.then, %if.then3, %entry
  ret void
}